; Function Attrs: mustprogress uwtable
define dso_local noundef ptr @_ZN4absl12crc_internal7CRCImpl11NewInternalEv() local_unnamed_addr #1 align 2 personality ptr @__gxx_personality_v0 {
entry:
  %call = tail call noundef ptr @_ZN4absl12crc_internal36TryNewCRC32AcceleratedX86ARMCombinedEv()
  %cmp = icmp eq ptr %call, null
  br i1 %cmp, label %if.then, label %entry.if.end_crit_edge

entry.if.end_crit_edge:                           ; preds = %entry
  %vtable.pre = load ptr, ptr %call, align 8
  br label %if.end

if.then:                                          ; preds = %entry
  %call1 = tail call noalias noundef nonnull dereferenceable(8200) ptr @_Znwm(i64 noundef 8200) #19
  tail call void @llvm.memset.p0.i64(ptr noundef nonnull align 16 dereferenceable(8200) %call1, i8 0, i64 8200, i1 false)
  store ptr getelementptr inbounds ({ [10 x ptr] }, ptr @_ZTVN4absl12crc_internal5CRC32E, i64 0, i32 0, i64 2), ptr %call1, align 8
  br label %if.end

if.end:                                           ; preds = %entry.if.end_crit_edge, %if.then
  %vtable = phi ptr [ %vtable.pre, %entry.if.end_crit_edge ], [ getelementptr inbounds ({ [10 x ptr] }, ptr @_ZTVN4absl12crc_internal5CRC32E, i64 0, i32 0, i64 2), %if.then ]
  %result.0 = phi ptr [ %call, %entry.if.end_crit_edge ], [ %call1, %if.then ]
  %vfn = getelementptr inbounds i8, ptr %vtable, i64 56
  %0 = load ptr, ptr %vfn, align 8
  tail call void %0(ptr noundef nonnull align 8 dereferenceable(8) %result.0)
  ret ptr %result.0
}